; Function Attrs: nounwind uwtable
define dso_local range(i32 -2147483648, 2) i32 @bb_g_job_test_stage_out(ptr noundef %0) local_unnamed_addr #0 {
  %2 = alloca %struct.timeval, align 8
  %3 = alloca %struct.timeval, align 8
  %4 = alloca [20 x i8], align 16
  %5 = alloca i64, align 8
  call void @llvm.lifetime.start.p0(i64 16, ptr nonnull %2) #11
  call void @llvm.lifetime.start.p0(i64 16, ptr nonnull %3) #11
  call void @llvm.lifetime.start.p0(i64 20, ptr nonnull %4) #11
  call void @llvm.memset.p0.i64(ptr noundef nonnull align 16 dereferenceable(20) %4, i8 0, i64 20, i1 false)
  call void @llvm.lifetime.start.p0(i64 8, ptr nonnull %5) #11
  %6 = call i32 @gettimeofday(ptr noundef nonnull %2, ptr noundef null) #11
  %7 = getelementptr inbounds nuw i8, ptr %0, i64 120
  %8 = load ptr, ptr %7, align 8
  %9 = icmp eq ptr %8, null
  br i1 %9, label %39, label %10

10:                                               ; preds = %1
  %11 = load i8, ptr %8, align 1
  %12 = icmp eq i8 %11, 0
  br i1 %12, label %39, label %13

13:                                               ; preds = %10
  %14 = tail call i32 @pthread_mutex_lock(ptr noundef nonnull @g_context_lock) #11
  %.not = icmp eq i32 %14, 0
  br i1 %.not, label %.preheader, label %17

.preheader:                                       ; preds = %13
  %15 = load i32, ptr @g_context_cnt, align 4
  %16 = icmp sgt i32 %15, 0
  br i1 %16, label %.lr.ph, label %._crit_edge

17:                                               ; preds = %13
  %18 = tail call ptr @__errno_location() #12
  store i32 %14, ptr %18, align 4
  tail call void (ptr, ...) @fatal_abort(ptr noundef nonnull @.str.1, ptr noundef nonnull @__func__.bb_g_job_test_stage_out) #13
  unreachable

.lr.ph:                                           ; preds = %.preheader, %.lr.ph
  %indvars.iv = phi i64 [ %indvars.iv.next, %.lr.ph ], [ 0, %.preheader ]
  %.02128 = phi i32 [ %23, %.lr.ph ], [ 1, %.preheader ]
  %19 = load ptr, ptr @ops, align 8
  %20 = getelementptr inbounds nuw %struct.slurm_bb_ops, ptr %19, i64 %indvars.iv, i32 16
  %21 = load ptr, ptr %20, align 8
  %22 = tail call i32 %21(ptr noundef %0) #11
  %23 = tail call i32 @llvm.smin.i32(i32 %.02128, i32 %22)
  %indvars.iv.next = add nuw nsw i64 %indvars.iv, 1
  %24 = load i32, ptr @g_context_cnt, align 4
  %25 = sext i32 %24 to i64
  %26 = icmp slt i64 %indvars.iv.next, %25
  br i1 %26, label %.lr.ph, label %._crit_edge, !llvm.loop !28

._crit_edge:                                      ; preds = %.lr.ph, %.preheader
  %.021.lcssa = phi i32 [ 1, %.preheader ], [ %23, %.lr.ph ]
  %27 = tail call i32 @pthread_mutex_unlock(ptr noundef nonnull @g_context_lock) #11
  %.not25 = icmp eq i32 %27, 0
  br i1 %.not25, label %30, label %28

28:                                               ; preds = %._crit_edge
  %29 = tail call ptr @__errno_location() #12
  store i32 %27, ptr %29, align 4
  tail call void (ptr, ...) @fatal_abort(ptr noundef nonnull @.str.8, ptr noundef nonnull @__func__.bb_g_job_test_stage_out) #13
  unreachable

30:                                               ; preds = %._crit_edge
  %31 = call i32 @gettimeofday(ptr noundef nonnull %3, ptr noundef null) #11
  call void @slurm_diff_tv_str(ptr noundef nonnull %2, ptr noundef nonnull %3, ptr noundef nonnull %4, i32 noundef 20, ptr noundef nonnull @__func__.bb_g_job_test_stage_out, i64 noundef 0, ptr noundef nonnull %5) #11
  %.not26 = icmp eq i32 %.021.lcssa, 0
  br i1 %.not26, label %39, label %32

32:                                               ; preds = %30
  %33 = getelementptr inbounds nuw i8, ptr %0, i64 512
  %34 = load i16, ptr %33, align 8
  %35 = and i16 %34, 256
  %.not27 = icmp eq i16 %35, 0
  br i1 %.not27, label %39, label %36

36:                                               ; preds = %32
  call void @mail_job_info(ptr noundef nonnull %0, i16 noundef zeroext 256) #11
  %37 = load i16, ptr %33, align 8
  %38 = and i16 %37, -257
  store i16 %38, ptr %33, align 8
  br label %39

39:                                               ; preds = %30, %32, %36, %1, %10
  %.0 = phi i32 [ 1, %10 ], [ 1, %1 ], [ %.021.lcssa, %36 ], [ %.021.lcssa, %32 ], [ 0, %30 ]
  call void @llvm.lifetime.end.p0(i64 8, ptr nonnull %5) #11
  call void @llvm.lifetime.end.p0(i64 20, ptr nonnull %4) #11
  call void @llvm.lifetime.end.p0(i64 16, ptr nonnull %3) #11
  call void @llvm.lifetime.end.p0(i64 16, ptr nonnull %2) #11
  ret i32 %.0
}